; Function Attrs: nounwind uwtable
define internal noundef i32 @OnUpdateUnrollL(ptr nocapture noundef readonly %0, ptr noundef %1, ptr noundef %2, ptr nocapture noundef writeonly %3, ptr nocapture readnone %4, i32 %5) #0 {
  %7 = load ptr, ptr %0, align 8
  %8 = tail call i64 @zend_ini_parse_quantity_warn(ptr noundef %1, ptr noundef %7) #14
  %9 = add i64 %8, -1
  %or.cond = icmp ult i64 %9, 9
  br i1 %or.cond, label %10, label %13

10:                                               ; preds = %6
  %11 = ptrtoint ptr %2 to i64
  %12 = getelementptr inbounds i8, ptr %3, i64 %11
  store i64 %8, ptr %12, align 8
  br label %16

13:                                               ; preds = %6
  %14 = load ptr, ptr %0, align 8
  %15 = getelementptr inbounds i8, ptr %14, i64 24
  tail call void (i32, ptr, ...) @zend_error(i32 noundef 2, ptr noundef nonnull @.str.177, ptr noundef nonnull %15, i32 noundef 10) #14
  br label %16

16:                                               ; preds = %13, %10
  %.0 = phi i32 [ 0, %10 ], [ -1, %13 ]
  ret i32 %.0
}